target datalayout = "e-m:e-p270:32:32-p271:32:32-p272:64:64-i64:64-i128:128-f80:128-n8:16:32:64-S128"
target triple = "x86_64-pc-linux-gnu"

%union.ufmt_args = type { i64 }
%struct.u_printf_spec_info = type { i32, i32, i16, i16, i16, i8, i8, i8, i8, i8, i8, i8, i8, i8 }

; Function Attrs: mustprogress uwtable
define internal noundef i32 @_ZL23u_printf_scidbl_handlerPK23u_printf_stream_handlerPvP13ULocaleBundlePK18u_printf_spec_infoPK9ufmt_args(ptr noundef %0, ptr noundef %1, ptr noundef %2, ptr noundef %3, ptr noundef %4) #0 {
  %6 = alloca i32, align 4
  %7 = alloca ptr, align 8
  %8 = alloca ptr, align 8
  %9 = alloca ptr, align 8
  %10 = alloca ptr, align 8
  %11 = alloca ptr, align 8
  %12 = alloca %struct.u_printf_spec_info, align 4
  %13 = alloca double, align 8
  %14 = alloca i32, align 4
  %15 = alloca ptr, align 8
  %16 = alloca i32, align 4
  %17 = alloca i32, align 4
  %18 = alloca i32, align 4
  store ptr %0, ptr %7, align 8, !tbaa !3
  store ptr %1, ptr %8, align 8, !tbaa !10
  store ptr %2, ptr %9, align 8, !tbaa !13
  store ptr %3, ptr %10, align 8, !tbaa !19
  store ptr %4, ptr %11, align 8, !tbaa !21
  call void @llvm.lifetime.start.p0(i64 24, ptr %12) #9
  call void @llvm.lifetime.start.p0(i64 8, ptr %13) #9
  %19 = load ptr, ptr %11, align 8, !tbaa !21
  %20 = getelementptr inbounds %union.ufmt_args, ptr %19, i64 0
  %21 = load double, ptr %20, align 8, !tbaa !69
  store double %21, ptr %13, align 8, !tbaa !72
  call void @llvm.lifetime.start.p0(i64 4, ptr %14) #9
  call void @llvm.lifetime.start.p0(i64 8, ptr %15) #9
  call void @llvm.lifetime.start.p0(i64 4, ptr %16) #9
  call void @llvm.lifetime.start.p0(i64 4, ptr %17) #9
  %22 = load ptr, ptr %10, align 8, !tbaa !19
  call void @llvm.memcpy.p0.p0.i64(ptr align 4 %12, ptr align 4 %22, i64 24, i1 false)
  %23 = getelementptr inbounds nuw %struct.u_printf_spec_info, ptr %12, i32 0, i32 0
  %24 = load i32, ptr %23, align 4, !tbaa !42
  %25 = icmp eq i32 %24, -1
  br i1 %25, label %26, label %39

26:                                               ; preds = %5
  %27 = load double, ptr %13, align 8, !tbaa !72
  %28 = load double, ptr %13, align 8, !tbaa !72
  %29 = call double @uprv_trunc_77(double noundef %28)
  %30 = fcmp oeq double %27, %29
  br i1 %30, label %31, label %39

31:                                               ; preds = %26
  %32 = getelementptr inbounds nuw %struct.u_printf_spec_info, ptr %12, i32 0, i32 3
  store i16 102, ptr %32, align 2, !tbaa !60
  %33 = getelementptr inbounds nuw %struct.u_printf_spec_info, ptr %12, i32 0, i32 0
  store i32 0, ptr %33, align 4, !tbaa !42
  %34 = load ptr, ptr %7, align 8, !tbaa !3
  %35 = load ptr, ptr %8, align 8, !tbaa !10
  %36 = load ptr, ptr %9, align 8, !tbaa !13
  %37 = load ptr, ptr %11, align 8, !tbaa !21
  %38 = call noundef i32 @_ZL23u_printf_double_handlerPK23u_printf_stream_handlerPvP13ULocaleBundlePK18u_printf_spec_infoPK9ufmt_args(ptr noundef %34, ptr noundef %35, ptr noundef %36, ptr noundef %12, ptr noundef %37)
  store i32 %38, ptr %14, align 4, !tbaa !36
  br label %105

39:                                               ; preds = %26, %5
  %40 = load double, ptr %13, align 8, !tbaa !72
  %41 = fcmp olt double %40, 1.000000e-04
  br i1 %41, label %59, label %42

42:                                               ; preds = %39
  %43 = getelementptr inbounds nuw %struct.u_printf_spec_info, ptr %12, i32 0, i32 0
  %44 = load i32, ptr %43, align 4, !tbaa !42
  %45 = icmp slt i32 %44, 1
  br i1 %45, label %46, label %49

46:                                               ; preds = %42
  %47 = load double, ptr %13, align 8, !tbaa !72
  %48 = fcmp ole double 1.000000e+06, %47
  br i1 %48, label %59, label %49

49:                                               ; preds = %46, %42
  %50 = getelementptr inbounds nuw %struct.u_printf_spec_info, ptr %12, i32 0, i32 0
  %51 = load i32, ptr %50, align 4, !tbaa !42
  %52 = icmp ne i32 %51, -1
  br i1 %52, label %53, label %77

53:                                               ; preds = %49
  %54 = load double, ptr %13, align 8, !tbaa !72
  %55 = getelementptr inbounds nuw %struct.u_printf_spec_info, ptr %12, i32 0, i32 0
  %56 = load i32, ptr %55, align 4, !tbaa !42
  %57 = call double @uprv_pow10_77(i32 noundef %56)
  %58 = fcmp ogt double %54, %57
  br i1 %58, label %59, label %77

59:                                               ; preds = %53, %46, %39
  %60 = getelementptr inbounds nuw %struct.u_printf_spec_info, ptr %12, i32 0, i32 3
  %61 = load i16, ptr %60, align 2, !tbaa !60
  %62 = zext i16 %61 to i32
  %63 = sub nsw i32 %62, 2
  %64 = trunc i32 %63 to i16
  %65 = getelementptr inbounds nuw %struct.u_printf_spec_info, ptr %12, i32 0, i32 3
  store i16 %64, ptr %65, align 2, !tbaa !60
  %66 = getelementptr inbounds nuw %struct.u_printf_spec_info, ptr %12, i32 0, i32 0
  %67 = load i32, ptr %66, align 4, !tbaa !42
  %68 = icmp eq i32 %67, -1
  br i1 %68, label %69, label %71

69:                                               ; preds = %59
  %70 = getelementptr inbounds nuw %struct.u_printf_spec_info, ptr %12, i32 0, i32 0
  store i32 5, ptr %70, align 4, !tbaa !42
  br label %71

71:                                               ; preds = %69, %59
  %72 = load ptr, ptr %7, align 8, !tbaa !3
  %73 = load ptr, ptr %8, align 8, !tbaa !10
  %74 = load ptr, ptr %9, align 8, !tbaa !13
  %75 = load ptr, ptr %11, align 8, !tbaa !21
  %76 = call noundef i32 @_ZL27u_printf_scientific_handlerPK23u_printf_stream_handlerPvP13ULocaleBundlePK18u_printf_spec_infoPK9ufmt_args(ptr noundef %72, ptr noundef %73, ptr noundef %74, ptr noundef %12, ptr noundef %75)
  store i32 %76, ptr %14, align 4, !tbaa !36
  br label %104

77:                                               ; preds = %53, %49
  %78 = load ptr, ptr %9, align 8, !tbaa !13
  %79 = call ptr @u_locbund_getNumberFormat_77(ptr noundef %78, i32 noundef 1)
  store ptr %79, ptr %15, align 8, !tbaa !86
  %80 = load ptr, ptr %15, align 8, !tbaa !86
  %81 = icmp eq ptr %80, null
  br i1 %81, label %82, label %83

82:                                               ; preds = %77
  store i32 0, ptr %6, align 4
  store i32 1, ptr %18, align 4
  br label %107

83:                                               ; preds = %77
  %84 = load ptr, ptr %15, align 8, !tbaa !86
  %85 = call i32 @unum_getAttribute_77(ptr noundef %84, i32 noundef 18)
  store i32 %85, ptr %16, align 4, !tbaa !36
  %86 = getelementptr inbounds nuw %struct.u_printf_spec_info, ptr %12, i32 0, i32 0
  %87 = load i32, ptr %86, align 4, !tbaa !42
  store i32 %87, ptr %17, align 4, !tbaa !36
  %88 = getelementptr inbounds nuw %struct.u_printf_spec_info, ptr %12, i32 0, i32 3
  store i16 102, ptr %88, align 2, !tbaa !60
  %89 = load i32, ptr %17, align 4, !tbaa !36
  %90 = icmp eq i32 %89, -1
  br i1 %90, label %91, label %92

91:                                               ; preds = %83
  store i32 6, ptr %17, align 4, !tbaa !36
  br label %92

92:                                               ; preds = %91, %83
  %93 = load ptr, ptr %15, align 8, !tbaa !86
  call void @unum_setAttribute_77(ptr noundef %93, i32 noundef 16, i32 noundef 1)
  %94 = load ptr, ptr %15, align 8, !tbaa !86
  %95 = load i32, ptr %17, align 4, !tbaa !36
  call void @unum_setAttribute_77(ptr noundef %94, i32 noundef 18, i32 noundef %95)
  %96 = load ptr, ptr %7, align 8, !tbaa !3
  %97 = load ptr, ptr %8, align 8, !tbaa !10
  %98 = load ptr, ptr %9, align 8, !tbaa !13
  %99 = load ptr, ptr %11, align 8, !tbaa !21
  %100 = call noundef i32 @_ZL23u_printf_double_handlerPK23u_printf_stream_handlerPvP13ULocaleBundlePK18u_printf_spec_infoPK9ufmt_args(ptr noundef %96, ptr noundef %97, ptr noundef %98, ptr noundef %12, ptr noundef %99)
  store i32 %100, ptr %14, align 4, !tbaa !36
  %101 = load ptr, ptr %15, align 8, !tbaa !86
  %102 = load i32, ptr %16, align 4, !tbaa !36
  call void @unum_setAttribute_77(ptr noundef %101, i32 noundef 18, i32 noundef %102)
  %103 = load ptr, ptr %15, align 8, !tbaa !86
  call void @unum_setAttribute_77(ptr noundef %103, i32 noundef 16, i32 noundef 0)
  br label %104

104:                                              ; preds = %92, %71
  br label %105

105:                                              ; preds = %104, %31
  %106 = load i32, ptr %14, align 4, !tbaa !36
  store i32 %106, ptr %6, align 4
  store i32 1, ptr %18, align 4
  br label %107

107:                                              ; preds = %105, %82
  call void @llvm.lifetime.end.p0(i64 4, ptr %17) #9
  call void @llvm.lifetime.end.p0(i64 4, ptr %16) #9
  call void @llvm.lifetime.end.p0(i64 8, ptr %15) #9
  call void @llvm.lifetime.end.p0(i64 4, ptr %14) #9
  call void @llvm.lifetime.end.p0(i64 8, ptr %13) #9
  call void @llvm.lifetime.end.p0(i64 24, ptr %12) #9
  %108 = load i32, ptr %6, align 4
  ret i32 %108
}