; Function Attrs: mustprogress uwtable
define internal noundef i32 @_ZL23u_printf_scidbl_handlerPK23u_printf_stream_handlerPvP13ULocaleBundlePK18u_printf_spec_infoPK9ufmt_args(ptr noundef readonly captures(none) %0, ptr noundef %1, ptr noundef %2, ptr noundef readonly captures(none) %3, ptr noundef readonly captures(none) %4) #0 {
  %6 = alloca %struct.u_printf_spec_info, align 4
  call void @llvm.lifetime.start.p0(i64 24, ptr nonnull %6) #9
  %7 = load double, ptr %4, align 8, !tbaa !20
  call void @llvm.memcpy.p0.p0.i64(ptr noundef nonnull align 4 dereferenceable(24) %6, ptr noundef nonnull align 4 dereferenceable(24) %3, i64 24, i1 false)
  %8 = load i32, ptr %6, align 4, !tbaa !42
  %9 = icmp eq i32 %8, -1
  br i1 %9, label %10, label %16

10:                                               ; preds = %5
  %11 = tail call double @uprv_trunc_77(double noundef %7)
  %12 = fcmp oeq double %7, %11
  br i1 %12, label %13, label %16

13:                                               ; preds = %10
  %14 = getelementptr inbounds nuw i8, ptr %6, i64 10
  store i16 102, ptr %14, align 2, !tbaa !60
  store i32 0, ptr %6, align 4, !tbaa !42
  %15 = call noundef i32 @_ZL23u_printf_double_handlerPK23u_printf_stream_handlerPvP13ULocaleBundlePK18u_printf_spec_infoPK9ufmt_args(ptr noundef %0, ptr noundef %1, ptr noundef %2, ptr noundef nonnull %6, ptr noundef nonnull %4)
  br label %41

16:                                               ; preds = %10, %5
  %17 = fcmp olt double %7, 1.000000e-04
  br i1 %17, label %thread-pre-split, label %18

18:                                               ; preds = %16
  %19 = icmp slt i32 %8, 1
  %20 = fcmp oge double %7, 1.000000e+06
  %or.cond = select i1 %19, i1 %20, i1 false
  br i1 %or.cond, label %thread-pre-split, label %21

21:                                               ; preds = %18
  br i1 %9, label %34, label %22

22:                                               ; preds = %21
  %23 = tail call double @uprv_pow10_77(i32 noundef %8)
  %24 = fcmp ogt double %7, %23
  br i1 %24, label %thread-pre-split.thread, label %34

thread-pre-split.thread:                          ; preds = %22
  %25 = getelementptr inbounds nuw i8, ptr %6, i64 10
  %26 = load i16, ptr %25, align 2, !tbaa !60
  %27 = add i16 %26, -2
  store i16 %27, ptr %25, align 2, !tbaa !60
  br label %32

thread-pre-split:                                 ; preds = %16, %18
  %28 = getelementptr inbounds nuw i8, ptr %6, i64 10
  %29 = load i16, ptr %28, align 2, !tbaa !60
  %30 = add i16 %29, -2
  store i16 %30, ptr %28, align 2, !tbaa !60
  br i1 %9, label %31, label %32

31:                                               ; preds = %thread-pre-split
  store i32 5, ptr %6, align 4, !tbaa !42
  br label %32

32:                                               ; preds = %thread-pre-split.thread, %31, %thread-pre-split
  %33 = call noundef i32 @_ZL27u_printf_scientific_handlerPK23u_printf_stream_handlerPvP13ULocaleBundlePK18u_printf_spec_infoPK9ufmt_args(ptr noundef %0, ptr noundef %1, ptr noundef %2, ptr noundef nonnull %6, ptr noundef nonnull %4)
  br label %41

34:                                               ; preds = %22, %21
  %35 = tail call ptr @u_locbund_getNumberFormat_77(ptr noundef %2, i32 noundef 1)
  %36 = icmp eq ptr %35, null
  br i1 %36, label %41, label %37

37:                                               ; preds = %34
  %38 = tail call i32 @unum_getAttribute_77(ptr noundef nonnull %35, i32 noundef 18)
  %39 = getelementptr inbounds nuw i8, ptr %6, i64 10
  store i16 102, ptr %39, align 2, !tbaa !60
  %spec.store.select = select i1 %9, i32 6, i32 %8
  tail call void @unum_setAttribute_77(ptr noundef nonnull %35, i32 noundef 16, i32 noundef 1)
  tail call void @unum_setAttribute_77(ptr noundef nonnull %35, i32 noundef 18, i32 noundef %spec.store.select)
  %40 = call noundef i32 @_ZL23u_printf_double_handlerPK23u_printf_stream_handlerPvP13ULocaleBundlePK18u_printf_spec_infoPK9ufmt_args(ptr noundef %0, ptr noundef %1, ptr noundef %2, ptr noundef nonnull %6, ptr noundef nonnull %4)
  call void @unum_setAttribute_77(ptr noundef nonnull %35, i32 noundef 18, i32 noundef %38)
  call void @unum_setAttribute_77(ptr noundef nonnull %35, i32 noundef 16, i32 noundef 0)
  br label %41

41:                                               ; preds = %13, %37, %32, %34
  %.0 = phi i32 [ 0, %34 ], [ %15, %13 ], [ %33, %32 ], [ %40, %37 ]
  call void @llvm.lifetime.end.p0(i64 24, ptr nonnull %6) #9
  ret i32 %.0
}